target datalayout = "e-m:e-p270:32:32-p271:32:32-p272:64:64-i64:64-i128:128-f80:128-n8:16:32:64-S128"
target triple = "x86_64-pc-linux-gnu"

%struct.ref_iterator_vtable = type { ptr, ptr, ptr }
%struct.ref_iterator = type { ptr, ptr, ptr, ptr, i32 }
%struct.merge_ref_iterator = type { %struct.ref_iterator, ptr, ptr, ptr, ptr, ptr }

; Function Attrs: nounwind uwtable
define dso_local i32 @ref_iterator_abort(ptr noundef %0) #0 {
  %2 = alloca ptr, align 8
  store ptr %0, ptr %2, align 8, !tbaa !4
  %3 = load ptr, ptr %2, align 8, !tbaa !4
  %4 = getelementptr inbounds nuw %struct.ref_iterator, ptr %3, i32 0, i32 0
  %5 = load ptr, ptr %4, align 8, !tbaa !9
  %6 = getelementptr inbounds nuw %struct.ref_iterator_vtable, ptr %5, i32 0, i32 2
  %7 = load ptr, ptr %6, align 8, !tbaa !19
  %8 = load ptr, ptr %2, align 8, !tbaa !4
  %9 = call i32 %7(ptr noundef %8)
  ret i32 %9
}

; Function Attrs: nounwind uwtable
define dso_local i32 @ref_iterator_advance(ptr noundef %0) #0 {
  %2 = alloca ptr, align 8
  store ptr %0, ptr %2, align 8, !tbaa !4
  %3 = load ptr, ptr %2, align 8, !tbaa !4
  %4 = getelementptr inbounds nuw %struct.ref_iterator, ptr %3, i32 0, i32 0
  %5 = load ptr, ptr %4, align 8, !tbaa !9
  %6 = getelementptr inbounds nuw %struct.ref_iterator_vtable, ptr %5, i32 0, i32 0
  %7 = load ptr, ptr %6, align 8, !tbaa !15
  %8 = load ptr, ptr %2, align 8, !tbaa !4
  %9 = call i32 %7(ptr noundef %8)
  ret i32 %9
}

; Function Attrs: nounwind uwtable
define internal i32 @merge_ref_iterator_advance(ptr noundef %0) #0 {
  %2 = alloca i32, align 4
  %3 = alloca ptr, align 8
  %4 = alloca ptr, align 8
  %5 = alloca i32, align 4
  %6 = alloca ptr, align 8
  %7 = alloca i32, align 4
  %8 = alloca i32, align 4
  store ptr %0, ptr %3, align 8, !tbaa !4
  call void @llvm.lifetime.start.p0(i64 8, ptr %4) #6
  %9 = load ptr, ptr %3, align 8, !tbaa !4
  store ptr %9, ptr %4, align 8, !tbaa !29
  call void @llvm.lifetime.start.p0(i64 4, ptr %5) #6
  %10 = load ptr, ptr %4, align 8, !tbaa !29
  %11 = getelementptr inbounds nuw %struct.merge_ref_iterator, ptr %10, i32 0, i32 5
  %12 = load ptr, ptr %11, align 8, !tbaa !37
  %13 = icmp ne ptr %12, null
  br i1 %13, label %41, label %14

14:                                               ; preds = %1
  %15 = load ptr, ptr %4, align 8, !tbaa !29
  %16 = getelementptr inbounds nuw %struct.merge_ref_iterator, ptr %15, i32 0, i32 1
  %17 = load ptr, ptr %16, align 8, !tbaa !31
  %18 = call i32 @ref_iterator_advance(ptr noundef %17)
  store i32 %18, ptr %5, align 4, !tbaa !28
  %19 = icmp ne i32 %18, 0
  br i1 %19, label %20, label %27

20:                                               ; preds = %14
  %21 = load ptr, ptr %4, align 8, !tbaa !29
  %22 = getelementptr inbounds nuw %struct.merge_ref_iterator, ptr %21, i32 0, i32 1
  store ptr null, ptr %22, align 8, !tbaa !31
  %23 = load i32, ptr %5, align 4, !tbaa !28
  %24 = icmp eq i32 %23, -2
  br i1 %24, label %25, label %26

25:                                               ; preds = %20
  br label %164

26:                                               ; preds = %20
  br label %27

27:                                               ; preds = %26, %14
  %28 = load ptr, ptr %4, align 8, !tbaa !29
  %29 = getelementptr inbounds nuw %struct.merge_ref_iterator, ptr %28, i32 0, i32 2
  %30 = load ptr, ptr %29, align 8, !tbaa !34
  %31 = call i32 @ref_iterator_advance(ptr noundef %30)
  store i32 %31, ptr %5, align 4, !tbaa !28
  %32 = icmp ne i32 %31, 0
  br i1 %32, label %33, label %40

33:                                               ; preds = %27
  %34 = load ptr, ptr %4, align 8, !tbaa !29
  %35 = getelementptr inbounds nuw %struct.merge_ref_iterator, ptr %34, i32 0, i32 2
  store ptr null, ptr %35, align 8, !tbaa !34
  %36 = load i32, ptr %5, align 4, !tbaa !28
  %37 = icmp eq i32 %36, -2
  br i1 %37, label %38, label %39

38:                                               ; preds = %33
  br label %164

39:                                               ; preds = %33
  br label %40

40:                                               ; preds = %39, %27
  br label %57

41:                                               ; preds = %1
  %42 = load ptr, ptr %4, align 8, !tbaa !29
  %43 = getelementptr inbounds nuw %struct.merge_ref_iterator, ptr %42, i32 0, i32 5
  %44 = load ptr, ptr %43, align 8, !tbaa !37
  %45 = load ptr, ptr %44, align 8, !tbaa !4
  %46 = call i32 @ref_iterator_advance(ptr noundef %45)
  store i32 %46, ptr %5, align 4, !tbaa !28
  %47 = icmp ne i32 %46, 0
  br i1 %47, label %48, label %56

48:                                               ; preds = %41
  %49 = load ptr, ptr %4, align 8, !tbaa !29
  %50 = getelementptr inbounds nuw %struct.merge_ref_iterator, ptr %49, i32 0, i32 5
  %51 = load ptr, ptr %50, align 8, !tbaa !37
  store ptr null, ptr %51, align 8, !tbaa !4
  %52 = load i32, ptr %5, align 4, !tbaa !28
  %53 = icmp eq i32 %52, -2
  br i1 %53, label %54, label %55

54:                                               ; preds = %48
  br label %164

55:                                               ; preds = %48
  br label %56

56:                                               ; preds = %55, %41
  br label %57

57:                                               ; preds = %56, %40
  br label %58

58:                                               ; preds = %163, %57
  br label %59

59:                                               ; preds = %58
  call void @llvm.lifetime.start.p0(i64 8, ptr %6) #6
  call void @llvm.lifetime.start.p0(i64 4, ptr %7) #6
  %60 = load ptr, ptr %4, align 8, !tbaa !29
  %61 = getelementptr inbounds nuw %struct.merge_ref_iterator, ptr %60, i32 0, i32 3
  %62 = load ptr, ptr %61, align 8, !tbaa !35
  %63 = load ptr, ptr %4, align 8, !tbaa !29
  %64 = getelementptr inbounds nuw %struct.merge_ref_iterator, ptr %63, i32 0, i32 1
  %65 = load ptr, ptr %64, align 8, !tbaa !31
  %66 = load ptr, ptr %4, align 8, !tbaa !29
  %67 = getelementptr inbounds nuw %struct.merge_ref_iterator, ptr %66, i32 0, i32 2
  %68 = load ptr, ptr %67, align 8, !tbaa !34
  %69 = load ptr, ptr %4, align 8, !tbaa !29
  %70 = getelementptr inbounds nuw %struct.merge_ref_iterator, ptr %69, i32 0, i32 4
  %71 = load ptr, ptr %70, align 8, !tbaa !36
  %72 = call i32 %62(ptr noundef %65, ptr noundef %68, ptr noundef %71)
  store i32 %72, ptr %7, align 4, !tbaa !28
  %73 = load i32, ptr %7, align 4, !tbaa !28
  %74 = icmp eq i32 %73, -1
  br i1 %74, label %75, label %78

75:                                               ; preds = %59
  %76 = load ptr, ptr %3, align 8, !tbaa !4
  %77 = call i32 @ref_iterator_abort(ptr noundef %76)
  store i32 %77, ptr %2, align 4
  store i32 1, ptr %8, align 4
  br label %161

78:                                               ; preds = %59
  %79 = load i32, ptr %7, align 4, !tbaa !28
  %80 = icmp eq i32 %79, -2
  br i1 %80, label %81, label %84

81:                                               ; preds = %78
  %82 = load ptr, ptr %3, align 8, !tbaa !4
  %83 = call i32 @ref_iterator_abort(ptr noundef %82)
  store i32 -2, ptr %2, align 4
  store i32 1, ptr %8, align 4
  br label %161

84:                                               ; preds = %78
  br label %85

85:                                               ; preds = %84
  %86 = load i32, ptr %7, align 4, !tbaa !28
  %87 = and i32 %86, 1
  %88 = icmp eq i32 %87, 0
  br i1 %88, label %89, label %96

89:                                               ; preds = %85
  %90 = load ptr, ptr %4, align 8, !tbaa !29
  %91 = getelementptr inbounds nuw %struct.merge_ref_iterator, ptr %90, i32 0, i32 1
  %92 = load ptr, ptr %4, align 8, !tbaa !29
  %93 = getelementptr inbounds nuw %struct.merge_ref_iterator, ptr %92, i32 0, i32 5
  store ptr %91, ptr %93, align 8, !tbaa !37
  %94 = load ptr, ptr %4, align 8, !tbaa !29
  %95 = getelementptr inbounds nuw %struct.merge_ref_iterator, ptr %94, i32 0, i32 2
  store ptr %95, ptr %6, align 8, !tbaa !48
  br label %103

96:                                               ; preds = %85
  %97 = load ptr, ptr %4, align 8, !tbaa !29
  %98 = getelementptr inbounds nuw %struct.merge_ref_iterator, ptr %97, i32 0, i32 2
  %99 = load ptr, ptr %4, align 8, !tbaa !29
  %100 = getelementptr inbounds nuw %struct.merge_ref_iterator, ptr %99, i32 0, i32 5
  store ptr %98, ptr %100, align 8, !tbaa !37
  %101 = load ptr, ptr %4, align 8, !tbaa !29
  %102 = getelementptr inbounds nuw %struct.merge_ref_iterator, ptr %101, i32 0, i32 1
  store ptr %102, ptr %6, align 8, !tbaa !48
  br label %103

103:                                              ; preds = %96, %89
  %104 = load i32, ptr %7, align 4, !tbaa !28
  %105 = and i32 %104, 4
  %106 = icmp ne i32 %105, 0
  br i1 %106, label %107, label %119

107:                                              ; preds = %103
  %108 = load ptr, ptr %6, align 8, !tbaa !48
  %109 = load ptr, ptr %108, align 8, !tbaa !4
  %110 = call i32 @ref_iterator_advance(ptr noundef %109)
  store i32 %110, ptr %5, align 4, !tbaa !28
  %111 = icmp ne i32 %110, 0
  br i1 %111, label %112, label %118

112:                                              ; preds = %107
  %113 = load ptr, ptr %6, align 8, !tbaa !48
  store ptr null, ptr %113, align 8, !tbaa !4
  %114 = load i32, ptr %5, align 4, !tbaa !28
  %115 = icmp eq i32 %114, -2
  br i1 %115, label %116, label %117

116:                                              ; preds = %112
  store i32 2, ptr %8, align 4
  br label %161

117:                                              ; preds = %112
  br label %118

118:                                              ; preds = %117, %107
  br label %119

119:                                              ; preds = %118, %103
  %120 = load i32, ptr %7, align 4, !tbaa !28
  %121 = and i32 %120, 2
  %122 = icmp ne i32 %121, 0
  br i1 %122, label %123, label %160

123:                                              ; preds = %119
  %124 = load ptr, ptr %4, align 8, !tbaa !29
  %125 = getelementptr inbounds nuw %struct.merge_ref_iterator, ptr %124, i32 0, i32 5
  %126 = load ptr, ptr %125, align 8, !tbaa !37
  %127 = load ptr, ptr %126, align 8, !tbaa !4
  %128 = getelementptr inbounds nuw %struct.ref_iterator, ptr %127, i32 0, i32 2
  %129 = load ptr, ptr %128, align 8, !tbaa !22
  %130 = load ptr, ptr %4, align 8, !tbaa !29
  %131 = getelementptr inbounds nuw %struct.merge_ref_iterator, ptr %130, i32 0, i32 0
  %132 = getelementptr inbounds nuw %struct.ref_iterator, ptr %131, i32 0, i32 2
  store ptr %129, ptr %132, align 8, !tbaa !49
  %133 = load ptr, ptr %4, align 8, !tbaa !29
  %134 = getelementptr inbounds nuw %struct.merge_ref_iterator, ptr %133, i32 0, i32 5
  %135 = load ptr, ptr %134, align 8, !tbaa !37
  %136 = load ptr, ptr %135, align 8, !tbaa !4
  %137 = getelementptr inbounds nuw %struct.ref_iterator, ptr %136, i32 0, i32 1
  %138 = load ptr, ptr %137, align 8, !tbaa !21
  %139 = load ptr, ptr %4, align 8, !tbaa !29
  %140 = getelementptr inbounds nuw %struct.merge_ref_iterator, ptr %139, i32 0, i32 0
  %141 = getelementptr inbounds nuw %struct.ref_iterator, ptr %140, i32 0, i32 1
  store ptr %138, ptr %141, align 8, !tbaa !50
  %142 = load ptr, ptr %4, align 8, !tbaa !29
  %143 = getelementptr inbounds nuw %struct.merge_ref_iterator, ptr %142, i32 0, i32 5
  %144 = load ptr, ptr %143, align 8, !tbaa !37
  %145 = load ptr, ptr %144, align 8, !tbaa !4
  %146 = getelementptr inbounds nuw %struct.ref_iterator, ptr %145, i32 0, i32 3
  %147 = load ptr, ptr %146, align 8, !tbaa !23
  %148 = load ptr, ptr %4, align 8, !tbaa !29
  %149 = getelementptr inbounds nuw %struct.merge_ref_iterator, ptr %148, i32 0, i32 0
  %150 = getelementptr inbounds nuw %struct.ref_iterator, ptr %149, i32 0, i32 3
  store ptr %147, ptr %150, align 8, !tbaa !51
  %151 = load ptr, ptr %4, align 8, !tbaa !29
  %152 = getelementptr inbounds nuw %struct.merge_ref_iterator, ptr %151, i32 0, i32 5
  %153 = load ptr, ptr %152, align 8, !tbaa !37
  %154 = load ptr, ptr %153, align 8, !tbaa !4
  %155 = getelementptr inbounds nuw %struct.ref_iterator, ptr %154, i32 0, i32 4
  %156 = load i32, ptr %155, align 8, !tbaa !24
  %157 = load ptr, ptr %4, align 8, !tbaa !29
  %158 = getelementptr inbounds nuw %struct.merge_ref_iterator, ptr %157, i32 0, i32 0
  %159 = getelementptr inbounds nuw %struct.ref_iterator, ptr %158, i32 0, i32 4
  store i32 %156, ptr %159, align 8, !tbaa !52
  store i32 0, ptr %2, align 4
  store i32 1, ptr %8, align 4
  br label %161

160:                                              ; preds = %119
  store i32 0, ptr %8, align 4
  br label %161

161:                                              ; preds = %116, %160, %123, %81, %75
  call void @llvm.lifetime.end.p0(i64 4, ptr %7) #6
  call void @llvm.lifetime.end.p0(i64 8, ptr %6) #6
  %162 = load i32, ptr %8, align 4
  switch i32 %162, label %167 [
    i32 0, label %163
    i32 2, label %164
  ]

163:                                              ; preds = %161
  br label %58

164:                                              ; preds = %161, %54, %38, %25
  %165 = load ptr, ptr %3, align 8, !tbaa !4
  %166 = call i32 @ref_iterator_abort(ptr noundef %165)
  store i32 -2, ptr %2, align 4
  store i32 1, ptr %8, align 4
  br label %167

167:                                              ; preds = %164, %161
  call void @llvm.lifetime.end.p0(i64 4, ptr %5) #6
  call void @llvm.lifetime.end.p0(i64 8, ptr %4) #6
  %168 = load i32, ptr %2, align 4
  ret i32 %168
}