; Function Attrs: nounwind uwtable
define internal i32 @merge_ref_iterator_advance(ptr noundef %0) #0 {
  %2 = getelementptr inbounds nuw i8, ptr %0, i64 72
  %3 = load ptr, ptr %2, align 8, !tbaa !25
  %.not = icmp eq ptr %3, null
  br i1 %.not, label %4, label %20

4:                                                ; preds = %1
  %5 = getelementptr inbounds nuw i8, ptr %0, i64 40
  %6 = load ptr, ptr %5, align 8, !tbaa !18
  %7 = load ptr, ptr %6, align 8, !tbaa !4
  %8 = load ptr, ptr %7, align 8, !tbaa !13
  %9 = tail call i32 %8(ptr noundef nonnull %6) #11
  %.not49 = icmp eq i32 %9, 0
  br i1 %.not49, label %12, label %10

10:                                               ; preds = %4
  store ptr null, ptr %5, align 8, !tbaa !18
  %11 = icmp eq i32 %9, -2
  br i1 %11, label %.thread58, label %12

12:                                               ; preds = %10, %4
  %13 = getelementptr inbounds nuw i8, ptr %0, i64 48
  %14 = load ptr, ptr %13, align 8, !tbaa !22
  %15 = load ptr, ptr %14, align 8, !tbaa !4
  %16 = load ptr, ptr %15, align 8, !tbaa !13
  %17 = tail call i32 %16(ptr noundef nonnull %14) #11
  %.not50 = icmp eq i32 %17, 0
  br i1 %.not50, label %28, label %18

18:                                               ; preds = %12
  store ptr null, ptr %13, align 8, !tbaa !22
  %19 = icmp eq i32 %17, -2
  br i1 %19, label %.thread58, label %28

20:                                               ; preds = %1
  %21 = load ptr, ptr %3, align 8, !tbaa !31
  %22 = load ptr, ptr %21, align 8, !tbaa !4
  %23 = load ptr, ptr %22, align 8, !tbaa !13
  %24 = tail call i32 %23(ptr noundef nonnull %21) #11
  %.not51 = icmp eq i32 %24, 0
  br i1 %.not51, label %28, label %25

25:                                               ; preds = %20
  %26 = load ptr, ptr %2, align 8, !tbaa !25
  store ptr null, ptr %26, align 8, !tbaa !31
  %27 = icmp eq i32 %24, -2
  br i1 %27, label %.thread58, label %28

28:                                               ; preds = %20, %25, %12, %18
  %29 = getelementptr inbounds nuw i8, ptr %0, i64 56
  %30 = getelementptr inbounds nuw i8, ptr %0, i64 40
  %31 = getelementptr inbounds nuw i8, ptr %0, i64 48
  %32 = getelementptr inbounds nuw i8, ptr %0, i64 64
  br label %33

33:                                               ; preds = %60, %28
  %34 = load ptr, ptr %29, align 8, !tbaa !23
  %35 = load ptr, ptr %30, align 8, !tbaa !18
  %36 = load ptr, ptr %31, align 8, !tbaa !22
  %37 = load ptr, ptr %32, align 8, !tbaa !24
  %38 = tail call i32 %34(ptr noundef %35, ptr noundef %36, ptr noundef %37) #11
  switch i32 %38, label %49 [
    i32 -1, label %39
    i32 -2, label %44
  ]

39:                                               ; preds = %33
  %40 = load ptr, ptr %0, align 8, !tbaa !4
  %41 = getelementptr inbounds nuw i8, ptr %40, i64 16
  %42 = load ptr, ptr %41, align 8, !tbaa !16
  %43 = tail call i32 %42(ptr noundef nonnull %0) #11
  br label %.thread

44:                                               ; preds = %33
  %45 = load ptr, ptr %0, align 8, !tbaa !4
  %46 = getelementptr inbounds nuw i8, ptr %45, i64 16
  %47 = load ptr, ptr %46, align 8, !tbaa !16
  %48 = tail call i32 %47(ptr noundef nonnull %0) #11
  br label %.thread

49:                                               ; preds = %33
  %50 = and i32 %38, 1
  %51 = icmp eq i32 %50, 0
  %. = select i1 %51, ptr %30, ptr %31
  %.55 = select i1 %51, ptr %31, ptr %30
  store ptr %., ptr %2, align 8, !tbaa !25
  %52 = and i32 %38, 4
  %.not52 = icmp eq i32 %52, 0
  br i1 %.not52, label %60, label %53

53:                                               ; preds = %49
  %54 = load ptr, ptr %.55, align 8, !tbaa !31
  %55 = load ptr, ptr %54, align 8, !tbaa !4
  %56 = load ptr, ptr %55, align 8, !tbaa !13
  %57 = tail call i32 %56(ptr noundef nonnull %54) #11
  %.not53 = icmp eq i32 %57, 0
  br i1 %.not53, label %60, label %58

58:                                               ; preds = %53
  store ptr null, ptr %.55, align 8, !tbaa !31
  %59 = icmp eq i32 %57, -2
  br i1 %59, label %.thread58, label %60

60:                                               ; preds = %53, %58, %49
  %61 = and i32 %38, 2
  %.not54 = icmp eq i32 %61, 0
  br i1 %.not54, label %33, label %62

62:                                               ; preds = %60
  %63 = load ptr, ptr %2, align 8, !tbaa !25
  %64 = load ptr, ptr %63, align 8, !tbaa !31
  %65 = getelementptr inbounds nuw i8, ptr %64, i64 16
  %66 = load ptr, ptr %65, align 8, !tbaa !32
  %67 = getelementptr inbounds nuw i8, ptr %0, i64 16
  store ptr %66, ptr %67, align 8, !tbaa !37
  %68 = getelementptr inbounds nuw i8, ptr %64, i64 8
  %69 = load ptr, ptr %68, align 8, !tbaa !17
  %70 = getelementptr inbounds nuw i8, ptr %0, i64 8
  store ptr %69, ptr %70, align 8, !tbaa !38
  %71 = getelementptr inbounds nuw i8, ptr %64, i64 24
  %72 = load ptr, ptr %71, align 8, !tbaa !33
  %73 = getelementptr inbounds nuw i8, ptr %0, i64 24
  store ptr %72, ptr %73, align 8, !tbaa !39
  %74 = getelementptr inbounds nuw i8, ptr %64, i64 32
  %75 = load i32, ptr %74, align 8, !tbaa !34
  %76 = getelementptr inbounds nuw i8, ptr %0, i64 32
  store i32 %75, ptr %76, align 8, !tbaa !40
  br label %.thread

.thread58:                                        ; preds = %58, %25, %18, %10
  %77 = load ptr, ptr %0, align 8, !tbaa !4
  %78 = getelementptr inbounds nuw i8, ptr %77, i64 16
  %79 = load ptr, ptr %78, align 8, !tbaa !16
  %80 = tail call i32 %79(ptr noundef nonnull %0) #11
  br label %.thread

.thread:                                          ; preds = %62, %44, %39, %.thread58
  %.2 = phi i32 [ -2, %.thread58 ], [ 0, %62 ], [ -2, %44 ], [ %43, %39 ]
  ret i32 %.2
}